target datalayout = "e-m:e-p270:32:32-p271:32:32-p272:64:64-i64:64-i128:128-f80:128-n8:16:32:64-S128"
target triple = "x86_64-pc-linux-gnu"

@hf_aim_sst_md5_hash = internal global i32 0, align 4
@hf_aim_sst_md5_hash_size = internal global i32 0, align 4
@hf_aim_sst_unknown = internal global i32 0, align 4

; Function Attrs: null_pointer_is_valid sspstrong uwtable
define internal i32 @dissect_aim_sst_buddy_down_req(ptr noundef %0, ptr noundef %1, ptr noundef %2) #0 {
  %4 = alloca ptr, align 8
  %5 = alloca ptr, align 8
  %6 = alloca ptr, align 8
  %7 = alloca i32, align 4
  %8 = alloca i8, align 1
  store ptr %0, ptr %4, align 8
  store ptr %1, ptr %5, align 8
  store ptr %2, ptr %6, align 8
  call void @llvm.lifetime.start.p0(i64 4, ptr %7) #13
  %9 = load ptr, ptr %4, align 8
  %10 = load ptr, ptr %5, align 8
  %11 = load ptr, ptr %6, align 8
  %12 = call i32 @dissect_aim_buddyname(ptr noundef %9, ptr noundef %10, i32 noundef 0, ptr noundef %11)
  store i32 %12, ptr %7, align 4
  call void @llvm.lifetime.start.p0(i64 1, ptr %8) #13
  %13 = load ptr, ptr %6, align 8
  %14 = load i32, ptr @hf_aim_sst_unknown, align 4
  %15 = load ptr, ptr %4, align 8
  %16 = load i32, ptr %7, align 4
  %17 = call ptr @proto_tree_add_item(ptr noundef %13, i32 noundef %14, ptr noundef %15, i32 noundef %16, i32 noundef 4, i32 noundef 0)
  %18 = load i32, ptr %7, align 4
  %19 = add i32 %18, 4
  store i32 %19, ptr %7, align 4
  %20 = load ptr, ptr %6, align 8
  %21 = load i32, ptr @hf_aim_sst_md5_hash_size, align 4
  %22 = load ptr, ptr %4, align 8
  %23 = load i32, ptr %7, align 4
  %24 = call ptr @proto_tree_add_item(ptr noundef %20, i32 noundef %21, ptr noundef %22, i32 noundef %23, i32 noundef 1, i32 noundef 0)
  %25 = load ptr, ptr %4, align 8
  %26 = load i32, ptr %7, align 4
  %27 = call zeroext i8 @tvb_get_uint8(ptr noundef %25, i32 noundef %26)
  store i8 %27, ptr %8, align 1
  %28 = load i32, ptr %7, align 4
  %29 = add i32 %28, 1
  store i32 %29, ptr %7, align 4
  %30 = load ptr, ptr %6, align 8
  %31 = load i32, ptr @hf_aim_sst_md5_hash, align 4
  %32 = load ptr, ptr %4, align 8
  %33 = load i32, ptr %7, align 4
  %34 = load i8, ptr %8, align 1
  %35 = zext i8 %34 to i32
  %36 = call ptr @proto_tree_add_item(ptr noundef %30, i32 noundef %31, ptr noundef %32, i32 noundef %33, i32 noundef %35, i32 noundef 0)
  %37 = load i8, ptr %8, align 1
  %38 = zext i8 %37 to i32
  %39 = load i32, ptr %7, align 4
  %40 = add i32 %39, %38
  store i32 %40, ptr %7, align 4
  %41 = load i32, ptr %7, align 4
  call void @llvm.lifetime.end.p0(i64 1, ptr %8) #13
  call void @llvm.lifetime.end.p0(i64 4, ptr %7) #13
  ret i32 %41
}