; Function Attrs: null_pointer_is_valid sspstrong uwtable
define internal noundef i32 @dissect_aim_sst_buddy_down_req(ptr noundef %0, ptr noundef readonly captures(none) %1, ptr noundef %2) #0 {
  %4 = tail call fastcc i32 @dissect_aim_buddyname(ptr noundef %0, ptr noundef %1, i32 noundef 0, ptr noundef %2)
  %5 = load i32, ptr @hf_aim_sst_unknown, align 4
  %6 = tail call ptr @proto_tree_add_item(ptr noundef %2, i32 noundef %5, ptr noundef %0, i32 noundef %4, i32 noundef 4, i32 noundef 0)
  %7 = add i32 %4, 4
  %8 = load i32, ptr @hf_aim_sst_md5_hash_size, align 4
  %9 = tail call ptr @proto_tree_add_item(ptr noundef %2, i32 noundef %8, ptr noundef %0, i32 noundef %7, i32 noundef 1, i32 noundef 0)
  %10 = tail call zeroext i8 @tvb_get_uint8(ptr noundef %0, i32 noundef %7)
  %11 = add i32 %4, 5
  %12 = load i32, ptr @hf_aim_sst_md5_hash, align 4
  %13 = zext i8 %10 to i32
  %14 = tail call ptr @proto_tree_add_item(ptr noundef %2, i32 noundef %12, ptr noundef %0, i32 noundef %11, i32 noundef %13, i32 noundef 0)
  %15 = add i32 %11, %13
  ret i32 %15
}